---
triple:          'arm64-apple-darwin'
binary-path:     kafkatest_verifiable_client
relocations:
  - { offsetInCU: 0x3F, offset: 0x3F, size: 0x8, addend: 0x0, symName: __ZL12value_prefix, symObjAddr: 0xC3640, symBinAddr: 0x10019C668, symSize: 0x0 }
  - { offsetInCU: 0xB411, offset: 0xB411, size: 0x8, addend: 0x0, symName: __ZNSt3__124__put_character_sequenceB8ue170006IcNS_11char_traitsIcEEEERNS_13basic_ostreamIT_T0_EES7_PKS4_m, symObjAddr: 0x7660, symBinAddr: 0x10000B64C, symSize: 0x168 }
  - { offsetInCU: 0xDB35, offset: 0xDB35, size: 0x8, addend: 0x0, symName: __ZNSt3__14endlB8ue170006IcNS_11char_traitsIcEEEERNS_13basic_ostreamIT_T0_EES7_, symObjAddr: 0xFE8, symBinAddr: 0x100004FD4, symSize: 0x94 }
  - { offsetInCU: 0xDC07, offset: 0xDC07, size: 0x8, addend: 0x0, symName: __ZNSt3__127__tree_balance_after_insertB8ue170006IPNS_16__tree_node_baseIPvEEEEvT_S5_, symObjAddr: 0x7AC4, symBinAddr: 0x10000BAB0, symSize: 0x1A0 }
  - { offsetInCU: 0xF5EC, offset: 0xF5EC, size: 0x8, addend: 0x0, symName: __ZNSt3__17getlineB8ue170006IcNS_11char_traitsIcEENS_9allocatorIcEEEERNS_13basic_istreamIT_T0_EES9_RNS_12basic_stringIS6_S7_T1_EES6_, symObjAddr: 0x6130, symBinAddr: 0x10000A11C, symSize: 0x188 }
  - { offsetInCU: 0xF8D6, offset: 0xF8D6, size: 0x8, addend: 0x0, symName: __ZNSt3__120__throw_out_of_rangeB8ue170006EPKc, symObjAddr: 0x62CC, symBinAddr: 0x10000A2B8, symSize: 0x50 }
  - { offsetInCU: 0xF915, offset: 0xF915, size: 0x8, addend: 0x0, symName: __ZNSt3__120__throw_length_errorB8ue170006EPKc, symObjAddr: 0x6354, symBinAddr: 0x10000A340, symSize: 0x50 }
  - { offsetInCU: 0xF954, offset: 0xF954, size: 0x8, addend: 0x0, symName: __ZNSt3__116__pad_and_outputB8ue170006IcNS_11char_traitsIcEEEENS_19ostreambuf_iteratorIT_T0_EES6_PKS4_S8_S8_RNS_8ios_baseES4_, symObjAddr: 0x77C8, symBinAddr: 0x10000B7B4, symSize: 0x194 }
  - { offsetInCU: 0x1016C, offset: 0x1016C, size: 0x8, addend: 0x0, symName: __ZNSt3__142__uninitialized_allocator_move_if_noexceptB8ue170006INS_9allocatorINS_12basic_stringIcNS_11char_traitsIcEENS1_IcEEEEEENS_16reverse_iteratorIPS6_EESA_SA_EET2_RT_T0_T1_SB_, symObjAddr: 0x7ED8, symBinAddr: 0x10000BEC4, symSize: 0x120 }
  - { offsetInCU: 0x1098C, offset: 0x1098C, size: 0x8, addend: 0x0, symName: __ZSt28__throw_bad_array_new_lengthB8ue170006v, symObjAddr: 0x63C8, symBinAddr: 0x10000A3B4, symSize: 0x28 }
  - { offsetInCU: 0x10BE3, offset: 0x10BE3, size: 0x8, addend: 0x0, symName: __ZL5state, symObjAddr: 0xC3658, symBinAddr: 0x10019C680, symSize: 0x0 }
  - { offsetInCU: 0x11255, offset: 0x11255, size: 0x8, addend: 0x0, symName: __ZL19ex_offset_commit_cb, symObjAddr: 0xC3690, symBinAddr: 0x10019C6B8, symSize: 0x0 }
  - { offsetInCU: 0x13CCE, offset: 0x13CCE, size: 0x8, addend: 0x0, symName: _main, symObjAddr: 0x1398, symBinAddr: 0x100005384, symSize: 0x3BB4 }
  - { offsetInCU: 0x13CF6, offset: 0x13CF6, size: 0x8, addend: 0x0, symName: __ZZ4mainE8delay_us, symObjAddr: 0xC3698, symBinAddr: 0x10019C6C0, symSize: 0x0 }
  - { offsetInCU: 0x28878, offset: 0x28878, size: 0x8, addend: 0x0, symName: __ZL9verbosity, symObjAddr: 0x8F40, symBinAddr: 0x100198000, symSize: 0x0 }
  - { offsetInCU: 0x28891, offset: 0x28891, size: 0x8, addend: 0x0, symName: __ZL3run, symObjAddr: 0x8F44, symBinAddr: 0x100198004, symSize: 0x0 }
  - { offsetInCU: 0x288C8, offset: 0x288C8, size: 0x8, addend: 0x0, symName: __ZL18watchdog_last_kick, symObjAddr: 0xC36A8, symBinAddr: 0x10019C6D0, symSize: 0x0 }
  - { offsetInCU: 0x2B946, offset: 0x2B946, size: 0x8, addend: 0x0, symName: '__ZN3$_0D1Ev', symObjAddr: 0x0, symBinAddr: 0x100003FEC, symSize: 0x2C }
  - { offsetInCU: 0x2BA68, offset: 0x2BA68, size: 0x8, addend: 0x0, symName: __ZNSt3__16__treeINS_12__value_typeINS_12basic_stringIcNS_11char_traitsIcEENS_9allocatorIcEEEE10AssignmentEENS_19__map_value_compareIS7_S9_NS_4lessIS7_EELb1EEENS5_IS9_EEE7destroyEPNS_11__tree_nodeIS9_PvEE, symObjAddr: 0x57B8, symBinAddr: 0x1000097A4, symSize: 0x6C }
  - { offsetInCU: 0x2BE65, offset: 0x2BE65, size: 0x8, addend: 0x0, symName: __ZN21ExampleOffsetCommitCbD1Ev, symObjAddr: 0x2C, symBinAddr: 0x100004018, symSize: 0x4 }
  - { offsetInCU: 0x2C03C, offset: 0x2C03C, size: 0x8, addend: 0x0, symName: __Z11msg_consumePN7RdKafka13KafkaConsumerEPNS_7MessageEPv, symObjAddr: 0x30, symBinAddr: 0x10000401C, symSize: 0x898 }
  - { offsetInCU: 0x2D9B8, offset: 0x2D9B8, size: 0x8, addend: 0x0, symName: __ZL3nowv, symObjAddr: 0xEA8, symBinAddr: 0x100004E94, symSize: 0x140 }
  - { offsetInCU: 0x2DDF3, offset: 0x2DDF3, size: 0x8, addend: 0x0, symName: __ZL23report_records_consumedi, symObjAddr: 0x8C8, symBinAddr: 0x1000048B4, symSize: 0x304 }
  - { offsetInCU: 0x2E5AD, offset: 0x2E5AD, size: 0x8, addend: 0x0, symName: __ZL9do_commitPN7RdKafka13KafkaConsumerEi, symObjAddr: 0xBCC, symBinAddr: 0x100004BB8, symSize: 0x2DC }
  - { offsetInCU: 0x2EEFC, offset: 0x2EEFC, size: 0x8, addend: 0x0, symName: __ZN10Assignment4nameERKNSt3__112basic_stringIcNS0_11char_traitsIcEENS0_9allocatorIcEEEEi, symObjAddr: 0x11E0, symBinAddr: 0x1000051CC, symSize: 0xB0 }
  - { offsetInCU: 0x2F060, offset: 0x2F060, size: 0x8, addend: 0x0, symName: __ZNSt3__13mapINS_12basic_stringIcNS_11char_traitsIcEENS_9allocatorIcEEEE10AssignmentNS_4lessIS6_EENS4_INS_4pairIKS6_S7_EEEEEixERSB_, symObjAddr: 0x1088, symBinAddr: 0x100005074, symSize: 0x158 }
  - { offsetInCU: 0x2F40E, offset: 0x2F40E, size: 0x8, addend: 0x0, symName: __ZN10Assignment5setupENSt3__112basic_stringIcNS0_11char_traitsIcEENS0_9allocatorIcEEEEi, symObjAddr: 0x1290, symBinAddr: 0x10000527C, symSize: 0x108 }
  - { offsetInCU: 0x2F605, offset: 0x2F605, size: 0x8, addend: 0x0, symName: _main, symObjAddr: 0x1398, symBinAddr: 0x100005384, symSize: 0x3BB4 }
  - { offsetInCU: 0x2F716, offset: 0x2F716, size: 0x8, addend: 0x0, symName: __ZL23report_records_consumedi.cold.1, symObjAddr: 0x8058, symBinAddr: 0x1001294EC, symSize: 0x28 }
  - { offsetInCU: 0x2FA1E, offset: 0x2FA1E, size: 0x8, addend: 0x0, symName: __ZNKSt3__112basic_stringIcNS_11char_traitsIcEENS_9allocatorIcEEE20__throw_length_errorB8ue170006Ev, symObjAddr: 0x6340, symBinAddr: 0x10000A32C, symSize: 0x14 }
  - { offsetInCU: 0x2FA47, offset: 0x2FA47, size: 0x8, addend: 0x0, symName: __ZNSt3__120__throw_length_errorB8ue170006EPKc, symObjAddr: 0x6354, symBinAddr: 0x10000A340, symSize: 0x50 }
  - { offsetInCU: 0x2FC7F, offset: 0x2FC7F, size: 0x8, addend: 0x0, symName: __ZNSt3__13mapINS_12basic_stringIcNS_11char_traitsIcEENS_9allocatorIcEEEE10AssignmentNS_4lessIS6_EENS4_INS_4pairIKS6_S7_EEEEE25__construct_node_with_keyERSB_, symObjAddr: 0x795C, symBinAddr: 0x10000B948, symSize: 0x104 }
  - { offsetInCU: 0x30464, offset: 0x30464, size: 0x8, addend: 0x0, symName: __ZNSt3__118basic_stringstreamIcNS_11char_traitsIcEENS_9allocatorIcEEEC1B8ue170006Ev, symObjAddr: 0x5DAC, symBinAddr: 0x100009D98, symSize: 0x130 }
  - { offsetInCU: 0x30575, offset: 0x30575, size: 0x8, addend: 0x0, symName: __ZNSt3__118basic_stringstreamIcNS_11char_traitsIcEENS_9allocatorIcEEED1Ev, symObjAddr: 0x5EDC, symBinAddr: 0x100009EC8, symSize: 0xB8 }
  - { offsetInCU: 0x30726, offset: 0x30726, size: 0x8, addend: 0x0, symName: __ZN10Assignment5setupENSt3__112basic_stringIcNS0_11char_traitsIcEENS0_9allocatorIcEEEEi.cold.1, symObjAddr: 0x8080, symBinAddr: 0x100129514, symSize: 0x28 }
  - { offsetInCU: 0x3073E, offset: 0x3073E, size: 0x8, addend: 0x0, symName: __ZN10Assignment5setupENSt3__112basic_stringIcNS0_11char_traitsIcEENS0_9allocatorIcEEEEi.cold.2, symObjAddr: 0x80A8, symBinAddr: 0x10012953C, symSize: 0x28 }
  - { offsetInCU: 0x30756, offset: 0x30756, size: 0x8, addend: 0x0, symName: __ZN10Assignment5setupENSt3__112basic_stringIcNS0_11char_traitsIcEENS0_9allocatorIcEEEEi.cold.3, symObjAddr: 0x80D0, symBinAddr: 0x100129564, symSize: 0x28 }
  - { offsetInCU: 0x3134F, offset: 0x3134F, size: 0x8, addend: 0x0, symName: __ZNSt3__16vectorINS_12basic_stringIcNS_11char_traitsIcEENS_9allocatorIcEEEENS4_IS6_EEE21__push_back_slow_pathIS6_EEvOT_, symObjAddr: 0x7C64, symBinAddr: 0x10000BC50, symSize: 0x1FC }
  - { offsetInCU: 0x31D28, offset: 0x31D28, size: 0x8, addend: 0x0, symName: __ZNSt3__114basic_ifstreamIcNS_11char_traitsIcEEEC1EPKcj, symObjAddr: 0x5F94, symBinAddr: 0x100009F80, symSize: 0x110 }
  - { offsetInCU: 0x31E0B, offset: 0x31E0B, size: 0x8, addend: 0x0, symName: __ZNSt3__112basic_stringIcNS_11char_traitsIcEENS_9allocatorIcEEEC1B8ue170006ILi0EEEPKc, symObjAddr: 0x4F4C, symBinAddr: 0x100008F38, symSize: 0xA0 }
  - { offsetInCU: 0x32187, offset: 0x32187, size: 0x8, addend: 0x0, symName: __ZL7sigtermi, symObjAddr: 0x4FEC, symBinAddr: 0x100008FD8, symSize: 0x16C }
  - { offsetInCU: 0x321B1, offset: 0x321B1, size: 0x8, addend: 0x0, symName: __ZNSt3__119basic_ostringstreamIcNS_11char_traitsIcEENS_9allocatorIcEEEC1B8ue170006Ev, symObjAddr: 0x5224, symBinAddr: 0x100009210, symSize: 0xF0 }
  - { offsetInCU: 0x32272, offset: 0x32272, size: 0x8, addend: 0x0, symName: __ZL11errorStringRKNSt3__112basic_stringIcNS_11char_traitsIcEENS_9allocatorIcEEEES7_S7_PS6_S7_, symObjAddr: 0x5314, symBinAddr: 0x100009300, symSize: 0x370 }
  - { offsetInCU: 0x33451, offset: 0x33451, size: 0x8, addend: 0x0, symName: __ZNSt3__119basic_ostringstreamIcNS_11char_traitsIcEENS_9allocatorIcEEED1Ev, symObjAddr: 0x5684, symBinAddr: 0x100009670, symSize: 0xB4 }
  - { offsetInCU: 0x33612, offset: 0x33612, size: 0x8, addend: 0x0, symName: __ZNKSt3__112basic_stringIcNS_11char_traitsIcEENS_9allocatorIcEEE20__throw_out_of_rangeB8ue170006Ev, symObjAddr: 0x62B8, symBinAddr: 0x10000A2A4, symSize: 0x14 }
  - { offsetInCU: 0x3363B, offset: 0x3363B, size: 0x8, addend: 0x0, symName: __ZNSt3__120__throw_out_of_rangeB8ue170006EPKc, symObjAddr: 0x62CC, symBinAddr: 0x10000A2B8, symSize: 0x50 }
  - { offsetInCU: 0x33646, offset: 0x33646, size: 0x8, addend: 0x0, symName: __ZNSt3__114basic_ifstreamIcNS_11char_traitsIcEEED1Ev, symObjAddr: 0x60A4, symBinAddr: 0x10000A090, symSize: 0x8C }
  - { offsetInCU: 0x33688, offset: 0x33688, size: 0x8, addend: 0x0, symName: __ZNSt3__16vectorINS_12basic_stringIcNS_11char_traitsIcEENS_9allocatorIcEEEENS4_IS6_EEED1B8ue170006Ev, symObjAddr: 0x5744, symBinAddr: 0x100009730, symSize: 0x74 }
  - { offsetInCU: 0x33952, offset: 0x33952, size: 0x8, addend: 0x0, symName: __ZL7sigtermi, symObjAddr: 0x4FEC, symBinAddr: 0x100008FD8, symSize: 0x16C }
  - { offsetInCU: 0x33D21, offset: 0x33D21, size: 0x8, addend: 0x0, symName: __ZL11sigwatchdogi, symObjAddr: 0x5158, symBinAddr: 0x100009144, symSize: 0xCC }
  - { offsetInCU: 0x340FD, offset: 0x340FD, size: 0x8, addend: 0x0, symName: __ZN23ExampleDeliveryReportCbD1Ev, symObjAddr: 0x5738, symBinAddr: 0x100009724, symSize: 0x4 }
  - { offsetInCU: 0x34129, offset: 0x34129, size: 0x8, addend: 0x0, symName: __ZN18ExampleRebalanceCbD1Ev, symObjAddr: 0x573C, symBinAddr: 0x100009728, symSize: 0x4 }
  - { offsetInCU: 0x34155, offset: 0x34155, size: 0x8, addend: 0x0, symName: __ZN14ExampleEventCbD1Ev, symObjAddr: 0x5740, symBinAddr: 0x10000972C, symSize: 0x4 }
  - { offsetInCU: 0x342C3, offset: 0x342C3, size: 0x8, addend: 0x0, symName: __ZN21ExampleOffsetCommitCb16offset_commit_cbEN7RdKafka9ErrorCodeERNSt3__16vectorIPNS0_14TopicPartitionENS2_9allocatorIS5_EEEE, symObjAddr: 0x5824, symBinAddr: 0x100009810, symSize: 0x584 }
  - { offsetInCU: 0x35672, offset: 0x35672, size: 0x8, addend: 0x0, symName: __ZN21ExampleOffsetCommitCb16offset_commit_cbEN7RdKafka9ErrorCodeERNSt3__16vectorIPNS0_14TopicPartitionENS2_9allocatorIS5_EEEE.cold.1, symObjAddr: 0x80F8, symBinAddr: 0x10012958C, symSize: 0x28 }
  - { offsetInCU: 0x3568A, offset: 0x3568A, size: 0x8, addend: 0x0, symName: __ZN21ExampleOffsetCommitCbD0Ev, symObjAddr: 0x5DA8, symBinAddr: 0x100009D94, symSize: 0x4 }
  - { offsetInCU: 0x356B9, offset: 0x356B9, size: 0x8, addend: 0x0, symName: __ZN21ExampleOffsetCommitCbD0Ev, symObjAddr: 0x5DA8, symBinAddr: 0x100009D94, symSize: 0x4 }
  - { offsetInCU: 0x35859, offset: 0x35859, size: 0x8, addend: 0x0, symName: __ZNSt12out_of_rangeC1B8ue170006EPKc, symObjAddr: 0x631C, symBinAddr: 0x10000A308, symSize: 0x24 }
  - { offsetInCU: 0x358E2, offset: 0x358E2, size: 0x8, addend: 0x0, symName: __ZNSt12length_errorC1B8ue170006EPKc, symObjAddr: 0x63A4, symBinAddr: 0x10000A390, symSize: 0x24 }
  - { offsetInCU: 0x3596B, offset: 0x3596B, size: 0x8, addend: 0x0, symName: __ZN14ExampleEventCb8event_cbERN7RdKafka5EventE, symObjAddr: 0x63F0, symBinAddr: 0x10000A3DC, symSize: 0x62C }
  - { offsetInCU: 0x365EF, offset: 0x365EF, size: 0x8, addend: 0x0, symName: __ZN14ExampleEventCbD0Ev, symObjAddr: 0x6A1C, symBinAddr: 0x10000AA08, symSize: 0x4 }
  - { offsetInCU: 0x3661E, offset: 0x3661E, size: 0x8, addend: 0x0, symName: __ZN14ExampleEventCbD0Ev, symObjAddr: 0x6A1C, symBinAddr: 0x10000AA08, symSize: 0x4 }
  - { offsetInCU: 0x366E5, offset: 0x366E5, size: 0x8, addend: 0x0, symName: __ZN23ExampleDeliveryReportCb5dr_cbERN7RdKafka7MessageE, symObjAddr: 0x6A20, symBinAddr: 0x10000AA0C, symSize: 0x77C }
  - { offsetInCU: 0x393F2, offset: 0x393F2, size: 0x8, addend: 0x0, symName: __ZN23ExampleDeliveryReportCbD0Ev, symObjAddr: 0x719C, symBinAddr: 0x10000B188, symSize: 0x4 }
  - { offsetInCU: 0x39421, offset: 0x39421, size: 0x8, addend: 0x0, symName: __ZN23ExampleDeliveryReportCbD0Ev, symObjAddr: 0x719C, symBinAddr: 0x10000B188, symSize: 0x4 }
  - { offsetInCU: 0x39434, offset: 0x39434, size: 0x8, addend: 0x0, symName: __ZN18ExampleRebalanceCb12rebalance_cbEPN7RdKafka13KafkaConsumerENS0_9ErrorCodeERNSt3__16vectorIPNS0_14TopicPartitionENS4_9allocatorIS7_EEEE, symObjAddr: 0x71A0, symBinAddr: 0x10000B18C, symSize: 0x32C }
  - { offsetInCU: 0x39F3E, offset: 0x39F3E, size: 0x8, addend: 0x0, symName: __ZN18ExampleRebalanceCb14part_list_jsonERKNSt3__16vectorIPN7RdKafka14TopicPartitionENS0_9allocatorIS4_EEEE, symObjAddr: 0x74D0, symBinAddr: 0x10000B4BC, symSize: 0x190 }
  - { offsetInCU: 0x3A295, offset: 0x3A295, size: 0x8, addend: 0x0, symName: __ZN18ExampleRebalanceCbD0Ev, symObjAddr: 0x74CC, symBinAddr: 0x10000B4B8, symSize: 0x4 }
  - { offsetInCU: 0x3A2C4, offset: 0x3A2C4, size: 0x8, addend: 0x0, symName: __ZN18ExampleRebalanceCbD0Ev, symObjAddr: 0x74CC, symBinAddr: 0x10000B4B8, symSize: 0x4 }
  - { offsetInCU: 0x3A79F, offset: 0x3A79F, size: 0x8, addend: 0x0, symName: __ZNSt3__110unique_ptrINS_11__tree_nodeINS_12__value_typeINS_12basic_stringIcNS_11char_traitsIcEENS_9allocatorIcEEEE10AssignmentEEPvEENS_21__map_node_destructorINS6_ISC_EEEEED1B8ue170006Ev, symObjAddr: 0x7A60, symBinAddr: 0x10000BA4C, symSize: 0x64 }
  - { offsetInCU: 0x3AF63, offset: 0x3AF63, size: 0x8, addend: 0x0, symName: __ZNKSt3__16vectorINS_12basic_stringIcNS_11char_traitsIcEENS_9allocatorIcEEEENS4_IS6_EEE20__throw_length_errorB8ue170006Ev, symObjAddr: 0x7EC4, symBinAddr: 0x10000BEB0, symSize: 0x14 }
  - { offsetInCU: 0x3AF8C, offset: 0x3AF8C, size: 0x8, addend: 0x0, symName: __ZNSt3__142__uninitialized_allocator_move_if_noexceptB8ue170006INS_9allocatorINS_12basic_stringIcNS_11char_traitsIcEENS1_IcEEEEEENS_16reverse_iteratorIPS6_EESA_SA_EET2_RT_T0_T1_SB_, symObjAddr: 0x7ED8, symBinAddr: 0x10000BEC4, symSize: 0x120 }
  - { offsetInCU: 0x3AF97, offset: 0x3AF97, size: 0x8, addend: 0x0, symName: __ZNSt3__114__split_bufferINS_12basic_stringIcNS_11char_traitsIcEENS_9allocatorIcEEEERNS4_IS6_EEED1Ev, symObjAddr: 0x7E60, symBinAddr: 0x10000BE4C, symSize: 0x64 }
  - { offsetInCU: 0x3B34F, offset: 0x3B34F, size: 0x8, addend: 0x0, symName: __ZNSt3__128__exception_guard_exceptionsINS_29_AllocatorDestroyRangeReverseINS_9allocatorINS_12basic_stringIcNS_11char_traitsIcEENS2_IcEEEEEENS_16reverse_iteratorIPS7_EEEEED1B8ue170006Ev, symObjAddr: 0x7FF8, symBinAddr: 0x10000BFE4, symSize: 0x60 }
...
