---
triple:          'arm64-apple-darwin'
binary-path:     rdkafka_complex_consumer_example_cpp
relocations:
  - { offsetInCU: 0x52, offset: 0x52, size: 0x8, addend: 0x0, symName: __ZL7msg_cnt, symObjAddr: 0x64D98, symBinAddr: 0x100194668, symSize: 0x0 }
  - { offsetInCU: 0x72, offset: 0x72, size: 0x8, addend: 0x0, symName: __ZL9msg_bytes, symObjAddr: 0x64DA0, symBinAddr: 0x100194670, symSize: 0x0 }
  - { offsetInCU: 0x9D, offset: 0x9D, size: 0x8, addend: 0x0, symName: __ZL9verbosity, symObjAddr: 0x30F0, symBinAddr: 0x100190000, symSize: 0x0 }
  - { offsetInCU: 0xBD, offset: 0xBD, size: 0x8, addend: 0x0, symName: __ZL8exit_eof, symObjAddr: 0x64DA8, symBinAddr: 0x100194678, symSize: 0x0 }
  - { offsetInCU: 0xE4, offset: 0xE4, size: 0x8, addend: 0x0, symName: __ZL7eof_cnt, symObjAddr: 0x64DAC, symBinAddr: 0x10019467C, symSize: 0x0 }
  - { offsetInCU: 0xFD, offset: 0xFD, size: 0x8, addend: 0x0, symName: __ZL13partition_cnt, symObjAddr: 0x64DB0, symBinAddr: 0x100194680, symSize: 0x0 }
  - { offsetInCU: 0x116, offset: 0x116, size: 0x8, addend: 0x0, symName: __ZL3run, symObjAddr: 0x30F4, symBinAddr: 0x100190004, symSize: 0x0 }
  - { offsetInCU: 0xBB1B, offset: 0xBB1B, size: 0x8, addend: 0x0, symName: __ZNSt3__124__put_character_sequenceB8ue170006IcNS_11char_traitsIcEEEERNS_13basic_ostreamIT_T0_EES7_PKS4_m, symObjAddr: 0x2468, symBinAddr: 0x100005608, symSize: 0x168 }
  - { offsetInCU: 0xE6E0, offset: 0xE6E0, size: 0x8, addend: 0x0, symName: __ZNSt3__14endlB8ue170006IcNS_11char_traitsIcEEEERNS_13basic_ostreamIT_T0_EES7_, symObjAddr: 0x620, symBinAddr: 0x1000037C0, symSize: 0x94 }
  - { offsetInCU: 0xE85C, offset: 0xE85C, size: 0x8, addend: 0x0, symName: __ZNSt3__116__pad_and_outputB8ue170006IcNS_11char_traitsIcEEEENS_19ostreambuf_iteratorIT_T0_EES6_PKS4_S8_S8_RNS_8ios_baseES4_, symObjAddr: 0x25D0, symBinAddr: 0x100005770, symSize: 0x194 }
  - { offsetInCU: 0xEFF6, offset: 0xEFF6, size: 0x8, addend: 0x0, symName: __ZNSt3__120__throw_length_errorB8ue170006EPKc, symObjAddr: 0x2778, symBinAddr: 0x100005918, symSize: 0x50 }
  - { offsetInCU: 0xF0D2, offset: 0xF0D2, size: 0x8, addend: 0x0, symName: __ZNSt3__142__uninitialized_allocator_move_if_noexceptB8ue170006INS_9allocatorINS_12basic_stringIcNS_11char_traitsIcEENS1_IcEEEEEENS_16reverse_iteratorIPS6_EESA_SA_EET2_RT_T0_T1_SB_, symObjAddr: 0x2A88, symBinAddr: 0x100005C28, symSize: 0x120 }
  - { offsetInCU: 0xF87D, offset: 0xF87D, size: 0x8, addend: 0x0, symName: __ZSt28__throw_bad_array_new_lengthB8ue170006v, symObjAddr: 0x27EC, symBinAddr: 0x10000598C, symSize: 0x28 }
  - { offsetInCU: 0x12CF7, offset: 0x12CF7, size: 0x8, addend: 0x0, symName: __Z11msg_consumePN7RdKafka7MessageEPv, symObjAddr: 0x0, symBinAddr: 0x1000031A0, symSize: 0x620 }
  - { offsetInCU: 0x140AF, offset: 0x140AF, size: 0x8, addend: 0x0, symName: _main, symObjAddr: 0x6C0, symBinAddr: 0x100003860, symSize: 0x11C8 }
  - { offsetInCU: 0x1AC18, offset: 0x1AC18, size: 0x8, addend: 0x0, symName: __ZNSt3__16vectorINS_12basic_stringIcNS_11char_traitsIcEENS_9allocatorIcEEEENS4_IS6_EEE21__push_back_slow_pathIS6_EEvOT_, symObjAddr: 0x2814, symBinAddr: 0x1000059B4, symSize: 0x1FC }
  - { offsetInCU: 0x1B611, offset: 0x1B611, size: 0x8, addend: 0x0, symName: __ZNKSt3__112basic_stringIcNS_11char_traitsIcEENS_9allocatorIcEEE20__throw_length_errorB8ue170006Ev, symObjAddr: 0x2764, symBinAddr: 0x100005904, symSize: 0x14 }
  - { offsetInCU: 0x1B63B, offset: 0x1B63B, size: 0x8, addend: 0x0, symName: __ZNSt3__120__throw_length_errorB8ue170006EPKc, symObjAddr: 0x2778, symBinAddr: 0x100005918, symSize: 0x50 }
  - { offsetInCU: 0x1B645, offset: 0x1B645, size: 0x8, addend: 0x0, symName: __ZNSt3__16vectorINS_12basic_stringIcNS_11char_traitsIcEENS_9allocatorIcEEEENS4_IS6_EEED1B8ue170006Ev, symObjAddr: 0x189C, symBinAddr: 0x100004A3C, symSize: 0x74 }
  - { offsetInCU: 0x1B90F, offset: 0x1B90F, size: 0x8, addend: 0x0, symName: __ZL7sigtermi, symObjAddr: 0x1888, symBinAddr: 0x100004A28, symSize: 0xC }
  - { offsetInCU: 0x1B935, offset: 0x1B935, size: 0x8, addend: 0x0, symName: __ZN14ExampleEventCbD1Ev, symObjAddr: 0x1894, symBinAddr: 0x100004A34, symSize: 0x4 }
  - { offsetInCU: 0x1B960, offset: 0x1B960, size: 0x8, addend: 0x0, symName: __ZN18ExampleRebalanceCbD1Ev, symObjAddr: 0x1898, symBinAddr: 0x100004A38, symSize: 0x4 }
  - { offsetInCU: 0x1B9A6, offset: 0x1B9A6, size: 0x8, addend: 0x0, symName: __ZN18ExampleRebalanceCb12rebalance_cbEPN7RdKafka13KafkaConsumerENS0_9ErrorCodeERNSt3__16vectorIPNS0_14TopicPartitionENS4_9allocatorIS7_EEEE, symObjAddr: 0x1910, symBinAddr: 0x100004AB0, symSize: 0x3F0 }
  - { offsetInCU: 0x1C540, offset: 0x1C540, size: 0x8, addend: 0x0, symName: __ZN18ExampleRebalanceCb15part_list_printERKNSt3__16vectorIPN7RdKafka14TopicPartitionENS0_9allocatorIS4_EEEE, symObjAddr: 0x1D04, symBinAddr: 0x100004EA4, symSize: 0xF4 }
  - { offsetInCU: 0x1C73F, offset: 0x1C73F, size: 0x8, addend: 0x0, symName: __ZN18ExampleRebalanceCbD0Ev, symObjAddr: 0x1D00, symBinAddr: 0x100004EA0, symSize: 0x4 }
  - { offsetInCU: 0x1C76D, offset: 0x1C76D, size: 0x8, addend: 0x0, symName: __ZN18ExampleRebalanceCbD0Ev, symObjAddr: 0x1D00, symBinAddr: 0x100004EA0, symSize: 0x4 }
  - { offsetInCU: 0x1C80E, offset: 0x1C80E, size: 0x8, addend: 0x0, symName: __ZN14ExampleEventCb8event_cbERN7RdKafka5EventE, symObjAddr: 0x1DF8, symBinAddr: 0x100004F98, symSize: 0x66C }
  - { offsetInCU: 0x1D3A6, offset: 0x1D3A6, size: 0x8, addend: 0x0, symName: __ZN14ExampleEventCbD0Ev, symObjAddr: 0x2464, symBinAddr: 0x100005604, symSize: 0x4 }
  - { offsetInCU: 0x1D3D4, offset: 0x1D3D4, size: 0x8, addend: 0x0, symName: __ZN14ExampleEventCbD0Ev, symObjAddr: 0x2464, symBinAddr: 0x100005604, symSize: 0x4 }
  - { offsetInCU: 0x1D669, offset: 0x1D669, size: 0x8, addend: 0x0, symName: __ZNSt12length_errorC1B8ue170006EPKc, symObjAddr: 0x27C8, symBinAddr: 0x100005968, symSize: 0x24 }
  - { offsetInCU: 0x1D973, offset: 0x1D973, size: 0x8, addend: 0x0, symName: __ZNKSt3__16vectorINS_12basic_stringIcNS_11char_traitsIcEENS_9allocatorIcEEEENS4_IS6_EEE20__throw_length_errorB8ue170006Ev, symObjAddr: 0x2A74, symBinAddr: 0x100005C14, symSize: 0x14 }
  - { offsetInCU: 0x1D99D, offset: 0x1D99D, size: 0x8, addend: 0x0, symName: __ZNSt3__142__uninitialized_allocator_move_if_noexceptB8ue170006INS_9allocatorINS_12basic_stringIcNS_11char_traitsIcEENS1_IcEEEEEENS_16reverse_iteratorIPS6_EESA_SA_EET2_RT_T0_T1_SB_, symObjAddr: 0x2A88, symBinAddr: 0x100005C28, symSize: 0x120 }
  - { offsetInCU: 0x1D9A7, offset: 0x1D9A7, size: 0x8, addend: 0x0, symName: __ZNSt3__114__split_bufferINS_12basic_stringIcNS_11char_traitsIcEENS_9allocatorIcEEEERNS4_IS6_EEED1Ev, symObjAddr: 0x2A10, symBinAddr: 0x100005BB0, symSize: 0x64 }
  - { offsetInCU: 0x1DD5D, offset: 0x1DD5D, size: 0x8, addend: 0x0, symName: __ZNSt3__128__exception_guard_exceptionsINS_29_AllocatorDestroyRangeReverseINS_9allocatorINS_12basic_stringIcNS_11char_traitsIcEENS2_IcEEEEEENS_16reverse_iteratorIPS7_EEEEED1B8ue170006Ev, symObjAddr: 0x2BA8, symBinAddr: 0x100005D48, symSize: 0x60 }
...
